target datalayout = "e-m:e-p270:32:32-p271:32:32-p272:64:64-i64:64-i128:128-f80:128-n8:16:32:64-S128"
target triple = "x86_64-pc-linux-gnu"

%struct.Curl_cfilter = type { ptr, ptr, ptr, ptr, i32, i8 }
%struct.Curl_cftype = type { ptr, i32, i32, ptr, ptr, ptr, ptr, ptr, ptr, ptr, ptr, ptr, ptr, ptr, ptr, ptr }

; Function Attrs: nounwind uwtable
define dso_local i64 @Curl_cf_def_recv(ptr noundef %0, ptr noundef %1, ptr noundef %2, i64 noundef %3, ptr noundef %4) #0 {
  %6 = alloca ptr, align 8
  %7 = alloca ptr, align 8
  %8 = alloca ptr, align 8
  %9 = alloca i64, align 8
  %10 = alloca ptr, align 8
  store ptr %0, ptr %6, align 8, !tbaa !4
  store ptr %1, ptr %7, align 8, !tbaa !9
  store ptr %2, ptr %8, align 8, !tbaa !50
  store i64 %3, ptr %9, align 8, !tbaa !58
  store ptr %4, ptr %10, align 8, !tbaa !57
  %11 = load ptr, ptr %6, align 8, !tbaa !4
  %12 = getelementptr inbounds nuw %struct.Curl_cfilter, ptr %11, i32 0, i32 1
  %13 = load ptr, ptr %12, align 8, !tbaa !19
  %14 = icmp ne ptr %13, null
  br i1 %14, label %15, label %31

15:                                               ; preds = %5
  %16 = load ptr, ptr %6, align 8, !tbaa !4
  %17 = getelementptr inbounds nuw %struct.Curl_cfilter, ptr %16, i32 0, i32 1
  %18 = load ptr, ptr %17, align 8, !tbaa !19
  %19 = getelementptr inbounds nuw %struct.Curl_cfilter, ptr %18, i32 0, i32 0
  %20 = load ptr, ptr %19, align 8, !tbaa !24
  %21 = getelementptr inbounds nuw %struct.Curl_cftype, ptr %20, i32 0, i32 11
  %22 = load ptr, ptr %21, align 8, !tbaa !62
  %23 = load ptr, ptr %6, align 8, !tbaa !4
  %24 = getelementptr inbounds nuw %struct.Curl_cfilter, ptr %23, i32 0, i32 1
  %25 = load ptr, ptr %24, align 8, !tbaa !19
  %26 = load ptr, ptr %7, align 8, !tbaa !9
  %27 = load ptr, ptr %8, align 8, !tbaa !50
  %28 = load i64, ptr %9, align 8, !tbaa !58
  %29 = load ptr, ptr %10, align 8, !tbaa !57
  %30 = call i64 %22(ptr noundef %25, ptr noundef %26, ptr noundef %27, i64 noundef %28, ptr noundef %29)
  br label %32

31:                                               ; preds = %5
  br label %32

32:                                               ; preds = %31, %15
  %33 = phi i64 [ %30, %15 ], [ 55, %31 ]
  ret i64 %33
}