; Function Attrs: nounwind uwtable
define dso_local i64 @Curl_cf_def_recv(ptr noundef readonly captures(none) %0, ptr noundef %1, ptr noundef %2, i64 noundef %3, ptr noundef %4) local_unnamed_addr #1 {
  %6 = getelementptr inbounds nuw i8, ptr %0, i64 8
  %7 = load ptr, ptr %6, align 8, !tbaa !8
  %.not = icmp eq ptr %7, null
  br i1 %.not, label %13, label %8

8:                                                ; preds = %5
  %9 = load ptr, ptr %7, align 8, !tbaa !15
  %10 = getelementptr inbounds nuw i8, ptr %9, i64 80
  %11 = load ptr, ptr %10, align 8, !tbaa !47
  %12 = tail call i64 %11(ptr noundef nonnull %7, ptr noundef %1, ptr noundef %2, i64 noundef %3, ptr noundef %4) #12
  br label %13

13:                                               ; preds = %5, %8
  %14 = phi i64 [ %12, %8 ], [ 55, %5 ]
  ret i64 %14
}